target datalayout = "e-m:e-p270:32:32-p271:32:32-p272:64:64-i64:64-i128:128-f80:128-n8:16:32:64-S128"
target triple = "x86_64-pc-linux-gnu"

; Function Attrs: nounwind uwtable
define hidden void @KeccakP1600_OverwriteBytesInLane(ptr noundef %0, i32 noundef %1, ptr noundef %2, i32 noundef %3, i32 noundef %4) #0 {
  %6 = alloca ptr, align 8
  %7 = alloca i32, align 4
  %8 = alloca ptr, align 8
  %9 = alloca i32, align 4
  %10 = alloca i32, align 4
  %11 = alloca i32, align 4
  store ptr %0, ptr %6, align 8, !tbaa !4
  store i32 %1, ptr %7, align 4, !tbaa !10
  store ptr %2, ptr %8, align 8, !tbaa !12
  store i32 %3, ptr %9, align 4, !tbaa !10
  store i32 %4, ptr %10, align 4, !tbaa !10
  %12 = load i32, ptr %7, align 4, !tbaa !10
  %13 = icmp eq i32 %12, 1
  br i1 %13, label %29, label %14

14:                                               ; preds = %5
  %15 = load i32, ptr %7, align 4, !tbaa !10
  %16 = icmp eq i32 %15, 2
  br i1 %16, label %29, label %17

17:                                               ; preds = %14
  %18 = load i32, ptr %7, align 4, !tbaa !10
  %19 = icmp eq i32 %18, 8
  br i1 %19, label %29, label %20

20:                                               ; preds = %17
  %21 = load i32, ptr %7, align 4, !tbaa !10
  %22 = icmp eq i32 %21, 12
  br i1 %22, label %29, label %23

23:                                               ; preds = %20
  %24 = load i32, ptr %7, align 4, !tbaa !10
  %25 = icmp eq i32 %24, 17
  br i1 %25, label %29, label %26

26:                                               ; preds = %23
  %27 = load i32, ptr %7, align 4, !tbaa !10
  %28 = icmp eq i32 %27, 20
  br i1 %28, label %29, label %56

29:                                               ; preds = %26, %23, %20, %17, %14, %5
  call void @llvm.lifetime.start.p0(i64 4, ptr %11) #4
  store i32 0, ptr %11, align 4, !tbaa !10
  br label %30

30:                                               ; preds = %52, %29
  %31 = load i32, ptr %11, align 4, !tbaa !10
  %32 = load i32, ptr %10, align 4, !tbaa !10
  %33 = icmp ult i32 %31, %32
  br i1 %33, label %34, label %55

34:                                               ; preds = %30
  %35 = load ptr, ptr %8, align 8, !tbaa !12
  %36 = load i32, ptr %11, align 4, !tbaa !10
  %37 = zext i32 %36 to i64
  %38 = getelementptr inbounds nuw i8, ptr %35, i64 %37
  %39 = load i8, ptr %38, align 1, !tbaa !14
  %40 = zext i8 %39 to i32
  %41 = xor i32 %40, -1
  %42 = trunc i32 %41 to i8
  %43 = load ptr, ptr %6, align 8, !tbaa !4
  %44 = load i32, ptr %7, align 4, !tbaa !10
  %45 = mul i32 %44, 8
  %46 = load i32, ptr %9, align 4, !tbaa !10
  %47 = add i32 %45, %46
  %48 = load i32, ptr %11, align 4, !tbaa !10
  %49 = add i32 %47, %48
  %50 = zext i32 %49 to i64
  %51 = getelementptr inbounds nuw i8, ptr %43, i64 %50
  store i8 %42, ptr %51, align 1, !tbaa !14
  br label %52

52:                                               ; preds = %34
  %53 = load i32, ptr %11, align 4, !tbaa !10
  %54 = add i32 %53, 1
  store i32 %54, ptr %11, align 4, !tbaa !10
  br label %30

55:                                               ; preds = %30
  call void @llvm.lifetime.end.p0(i64 4, ptr %11) #4
  br label %68

56:                                               ; preds = %26
  %57 = load ptr, ptr %6, align 8, !tbaa !4
  %58 = load i32, ptr %7, align 4, !tbaa !10
  %59 = mul i32 %58, 8
  %60 = zext i32 %59 to i64
  %61 = getelementptr inbounds nuw i8, ptr %57, i64 %60
  %62 = load i32, ptr %9, align 4, !tbaa !10
  %63 = zext i32 %62 to i64
  %64 = getelementptr inbounds nuw i8, ptr %61, i64 %63
  %65 = load ptr, ptr %8, align 8, !tbaa !12
  %66 = load i32, ptr %10, align 4, !tbaa !10
  %67 = zext i32 %66 to i64
  call void @llvm.memcpy.p0.p0.i64(ptr align 1 %64, ptr align 1 %65, i64 %67, i1 false)
  br label %68

68:                                               ; preds = %56, %55
  ret void
}