; Function Attrs: nofree norecurse nosync nounwind memory(argmem: readwrite) uwtable
define hidden void @KeccakP1600_OverwriteBytesInLane(ptr noundef writeonly captures(none) %0, i32 noundef %1, ptr noundef readonly captures(none) %2, i32 noundef %3, i32 noundef %4) local_unnamed_addr #5 {
  switch i32 %1, label %17 [
    i32 20, label %6
    i32 17, label %6
    i32 12, label %6
    i32 8, label %6
    i32 2, label %6
    i32 1, label %6
  ]

6:                                                ; preds = %5, %5, %5, %5, %5, %5
  %.not = icmp eq i32 %4, 0
  br i1 %.not, label %.loopexit, label %.lr.ph

.lr.ph:                                           ; preds = %6
  %7 = shl nuw nsw i32 %1, 3
  %8 = add i32 %3, %7
  %wide.trip.count = zext i32 %4 to i64
  br label %9

9:                                                ; preds = %.lr.ph, %9
  %indvars.iv = phi i64 [ 0, %.lr.ph ], [ %indvars.iv.next, %9 ]
  %10 = getelementptr inbounds nuw i8, ptr %2, i64 %indvars.iv
  %11 = load i8, ptr %10, align 1, !tbaa !8
  %12 = xor i8 %11, -1
  %13 = trunc nuw i64 %indvars.iv to i32
  %14 = add i32 %8, %13
  %15 = zext i32 %14 to i64
  %16 = getelementptr inbounds nuw i8, ptr %0, i64 %15
  store i8 %12, ptr %16, align 1, !tbaa !8
  %indvars.iv.next = add nuw nsw i64 %indvars.iv, 1
  %exitcond.not = icmp eq i64 %indvars.iv.next, %wide.trip.count
  br i1 %exitcond.not, label %.loopexit, label %9

17:                                               ; preds = %5
  %18 = shl i32 %1, 3
  %19 = zext i32 %18 to i64
  %20 = getelementptr inbounds nuw i8, ptr %0, i64 %19
  %21 = zext i32 %3 to i64
  %22 = getelementptr inbounds nuw i8, ptr %20, i64 %21
  %23 = zext i32 %4 to i64
  tail call void @llvm.memcpy.p0.p0.i64(ptr align 1 %22, ptr align 1 %2, i64 %23, i1 false)
  br label %.loopexit

.loopexit:                                        ; preds = %9, %6, %17
  ret void
}